target datalayout = "e-m:e-p270:32:32-p271:32:32-p272:64:64-i64:64-i128:128-f80:128-n8:16:32:64-S128"
target triple = "x86_64-pc-linux-gnu"

%struct.FunctionCallInfoBaseData = type { ptr, ptr, ptr, i32, i8, i16, [0 x %struct.NullableDatum] }
%struct.NullableDatum = type { i64, i8 }
%struct.pg_re_flags = type { i32, i8 }
%struct.regexp_matches_ctx = type { ptr, i32, i32, ptr, i32, ptr, ptr, ptr, ptr, i32 }

@.str.3 = private unnamed_addr constant [9 x i8] c"regexp.c\00", align 1
@.str.6 = private unnamed_addr constant [37 x i8] c"invalid value for parameter \22%s\22: %d\00", align 1
@.str.7 = private unnamed_addr constant [6 x i8] c"start\00", align 1
@.str.8 = private unnamed_addr constant [2 x i8] c"n\00", align 1
@.str.9 = private unnamed_addr constant [40 x i8] c"%s does not support the \22global\22 option\00", align 1
@__func__.regexp_instr = private unnamed_addr constant [13 x i8] c"regexp_instr\00", align 1
@.str.11 = private unnamed_addr constant [10 x i8] c"endoption\00", align 1
@.str.12 = private unnamed_addr constant [8 x i8] c"subexpr\00", align 1
@.str.13 = private unnamed_addr constant [15 x i8] c"regexp_instr()\00", align 1

; Function Attrs: inlinehint nounwind uwtable
define internal i64 @Int32GetDatum(i32 noundef %0) #6 {
  %2 = alloca i32, align 4
  store i32 %0, ptr %2, align 4
  %3 = load i32, ptr %2, align 4
  %4 = sext i32 %3 to i64
  ret i64 %4
}

; Function Attrs: inlinehint nounwind uwtable
define internal i32 @DatumGetInt32(i64 noundef %0) #6 {
  %2 = alloca i64, align 8
  store i64 %0, ptr %2, align 8
  %3 = load i64, ptr %2, align 8
  %4 = trunc i64 %3 to i32
  ret i32 %4
}

; Function Attrs: inlinehint nounwind uwtable
define internal ptr @DatumGetPointer(i64 noundef %0) #6 {
  %2 = alloca i64, align 8
  store i64 %0, ptr %2, align 8
  %3 = load i64, ptr %2, align 8
  %4 = inttoptr i64 %3 to ptr
  ret ptr %4
}

; Function Attrs: nounwind uwtable
define dso_local i64 @regexp_instr(ptr noundef %0) #0 {
  %2 = alloca i64, align 8
  %3 = alloca ptr, align 8
  %4 = alloca ptr, align 8
  %5 = alloca ptr, align 8
  %6 = alloca i32, align 4
  %7 = alloca i32, align 4
  %8 = alloca i32, align 4
  %9 = alloca ptr, align 8
  %10 = alloca i32, align 4
  %11 = alloca i32, align 4
  %12 = alloca %struct.pg_re_flags, align 4
  %13 = alloca ptr, align 8
  %14 = alloca i32, align 4
  store ptr %0, ptr %3, align 8
  call void @llvm.lifetime.start.p0(i64 8, ptr %4) #8
  %15 = load ptr, ptr %3, align 8
  %16 = getelementptr inbounds nuw %struct.FunctionCallInfoBaseData, ptr %15, i32 0, i32 6
  %17 = getelementptr inbounds [0 x %struct.NullableDatum], ptr %16, i64 0, i64 0
  %18 = getelementptr inbounds nuw %struct.NullableDatum, ptr %17, i32 0, i32 0
  %19 = load i64, ptr %18, align 8
  %20 = call ptr @DatumGetPointer(i64 noundef %19)
  %21 = call ptr @pg_detoast_datum_packed(ptr noundef %20)
  store ptr %21, ptr %4, align 8
  call void @llvm.lifetime.start.p0(i64 8, ptr %5) #8
  %22 = load ptr, ptr %3, align 8
  %23 = getelementptr inbounds nuw %struct.FunctionCallInfoBaseData, ptr %22, i32 0, i32 6
  %24 = getelementptr inbounds [0 x %struct.NullableDatum], ptr %23, i64 0, i64 1
  %25 = getelementptr inbounds nuw %struct.NullableDatum, ptr %24, i32 0, i32 0
  %26 = load i64, ptr %25, align 8
  %27 = call ptr @DatumGetPointer(i64 noundef %26)
  %28 = call ptr @pg_detoast_datum_packed(ptr noundef %27)
  store ptr %28, ptr %5, align 8
  call void @llvm.lifetime.start.p0(i64 4, ptr %6) #8
  store i32 1, ptr %6, align 4
  call void @llvm.lifetime.start.p0(i64 4, ptr %7) #8
  store i32 1, ptr %7, align 4
  call void @llvm.lifetime.start.p0(i64 4, ptr %8) #8
  store i32 0, ptr %8, align 4
  call void @llvm.lifetime.start.p0(i64 8, ptr %9) #8
  %29 = load ptr, ptr %3, align 8
  %30 = getelementptr inbounds nuw %struct.FunctionCallInfoBaseData, ptr %29, i32 0, i32 5
  %31 = load i16, ptr %30, align 2
  %32 = sext i16 %31 to i32
  %33 = icmp sgt i32 %32, 5
  br i1 %33, label %34, label %42

34:                                               ; preds = %1
  %35 = load ptr, ptr %3, align 8
  %36 = getelementptr inbounds nuw %struct.FunctionCallInfoBaseData, ptr %35, i32 0, i32 6
  %37 = getelementptr inbounds [0 x %struct.NullableDatum], ptr %36, i64 0, i64 5
  %38 = getelementptr inbounds nuw %struct.NullableDatum, ptr %37, i32 0, i32 0
  %39 = load i64, ptr %38, align 8
  %40 = call ptr @DatumGetPointer(i64 noundef %39)
  %41 = call ptr @pg_detoast_datum_packed(ptr noundef %40)
  br label %43

42:                                               ; preds = %1
  br label %43

43:                                               ; preds = %42, %34
  %44 = phi ptr [ %41, %34 ], [ null, %42 ]
  store ptr %44, ptr %9, align 8
  call void @llvm.lifetime.start.p0(i64 4, ptr %10) #8
  store i32 0, ptr %10, align 4
  call void @llvm.lifetime.start.p0(i64 4, ptr %11) #8
  call void @llvm.lifetime.start.p0(i64 8, ptr %12) #8
  call void @llvm.lifetime.start.p0(i64 8, ptr %13) #8
  %45 = load ptr, ptr %3, align 8
  %46 = getelementptr inbounds nuw %struct.FunctionCallInfoBaseData, ptr %45, i32 0, i32 5
  %47 = load i16, ptr %46, align 2
  %48 = sext i16 %47 to i32
  %49 = icmp sgt i32 %48, 2
  br i1 %49, label %50, label %73

50:                                               ; preds = %43
  %51 = load ptr, ptr %3, align 8
  %52 = getelementptr inbounds nuw %struct.FunctionCallInfoBaseData, ptr %51, i32 0, i32 6
  %53 = getelementptr inbounds [0 x %struct.NullableDatum], ptr %52, i64 0, i64 2
  %54 = getelementptr inbounds nuw %struct.NullableDatum, ptr %53, i32 0, i32 0
  %55 = load i64, ptr %54, align 8
  %56 = call i32 @DatumGetInt32(i64 noundef %55)
  store i32 %56, ptr %6, align 4
  %57 = load i32, ptr %6, align 4
  %58 = icmp sle i32 %57, 0
  br i1 %58, label %59, label %72

59:                                               ; preds = %50
  br label %60

60:                                               ; preds = %59
  br i1 true, label %61, label %63

61:                                               ; preds = %60
  %62 = call zeroext i1 @errstart_cold(i32 noundef 21, ptr noundef null) #10
  br i1 %62, label %65, label %69

63:                                               ; preds = %60
  %64 = call zeroext i1 @errstart(i32 noundef 21, ptr noundef null)
  br i1 %64, label %65, label %69

65:                                               ; preds = %63, %61
  %66 = call i32 @errcode(i32 noundef 50856066)
  %67 = load i32, ptr %6, align 4
  %68 = call i32 (ptr, ...) @errmsg(ptr noundef @.str.6, ptr noundef @.str.7, i32 noundef %67)
  call void @errfinish(ptr noundef @.str.3, i32 noundef 1147, ptr noundef @__func__.regexp_instr)
  br label %69

69:                                               ; preds = %65, %63, %61
  unreachable

70:                                               ; No predecessors!
  br label %71

71:                                               ; preds = %70
  br label %72

72:                                               ; preds = %71, %50
  br label %73

73:                                               ; preds = %72, %43
  %74 = load ptr, ptr %3, align 8
  %75 = getelementptr inbounds nuw %struct.FunctionCallInfoBaseData, ptr %74, i32 0, i32 5
  %76 = load i16, ptr %75, align 2
  %77 = sext i16 %76 to i32
  %78 = icmp sgt i32 %77, 3
  br i1 %78, label %79, label %102

79:                                               ; preds = %73
  %80 = load ptr, ptr %3, align 8
  %81 = getelementptr inbounds nuw %struct.FunctionCallInfoBaseData, ptr %80, i32 0, i32 6
  %82 = getelementptr inbounds [0 x %struct.NullableDatum], ptr %81, i64 0, i64 3
  %83 = getelementptr inbounds nuw %struct.NullableDatum, ptr %82, i32 0, i32 0
  %84 = load i64, ptr %83, align 8
  %85 = call i32 @DatumGetInt32(i64 noundef %84)
  store i32 %85, ptr %7, align 4
  %86 = load i32, ptr %7, align 4
  %87 = icmp sle i32 %86, 0
  br i1 %87, label %88, label %101

88:                                               ; preds = %79
  br label %89

89:                                               ; preds = %88
  br i1 true, label %90, label %92

90:                                               ; preds = %89
  %91 = call zeroext i1 @errstart_cold(i32 noundef 21, ptr noundef null) #10
  br i1 %91, label %94, label %98

92:                                               ; preds = %89
  %93 = call zeroext i1 @errstart(i32 noundef 21, ptr noundef null)
  br i1 %93, label %94, label %98

94:                                               ; preds = %92, %90
  %95 = call i32 @errcode(i32 noundef 50856066)
  %96 = load i32, ptr %7, align 4
  %97 = call i32 (ptr, ...) @errmsg(ptr noundef @.str.6, ptr noundef @.str.8, i32 noundef %96)
  call void @errfinish(ptr noundef @.str.3, i32 noundef 1156, ptr noundef @__func__.regexp_instr)
  br label %98

98:                                               ; preds = %94, %92, %90
  unreachable

99:                                               ; No predecessors!
  br label %100

100:                                              ; preds = %99
  br label %101

101:                                              ; preds = %100, %79
  br label %102

102:                                              ; preds = %101, %73
  %103 = load ptr, ptr %3, align 8
  %104 = getelementptr inbounds nuw %struct.FunctionCallInfoBaseData, ptr %103, i32 0, i32 5
  %105 = load i16, ptr %104, align 2
  %106 = sext i16 %105 to i32
  %107 = icmp sgt i32 %106, 4
  br i1 %107, label %108, label %134

108:                                              ; preds = %102
  %109 = load ptr, ptr %3, align 8
  %110 = getelementptr inbounds nuw %struct.FunctionCallInfoBaseData, ptr %109, i32 0, i32 6
  %111 = getelementptr inbounds [0 x %struct.NullableDatum], ptr %110, i64 0, i64 4
  %112 = getelementptr inbounds nuw %struct.NullableDatum, ptr %111, i32 0, i32 0
  %113 = load i64, ptr %112, align 8
  %114 = call i32 @DatumGetInt32(i64 noundef %113)
  store i32 %114, ptr %8, align 4
  %115 = load i32, ptr %8, align 4
  %116 = icmp ne i32 %115, 0
  br i1 %116, label %117, label %133

117:                                              ; preds = %108
  %118 = load i32, ptr %8, align 4
  %119 = icmp ne i32 %118, 1
  br i1 %119, label %120, label %133

120:                                              ; preds = %117
  br label %121

121:                                              ; preds = %120
  br i1 true, label %122, label %124

122:                                              ; preds = %121
  %123 = call zeroext i1 @errstart_cold(i32 noundef 21, ptr noundef null) #10
  br i1 %123, label %126, label %130

124:                                              ; preds = %121
  %125 = call zeroext i1 @errstart(i32 noundef 21, ptr noundef null)
  br i1 %125, label %126, label %130

126:                                              ; preds = %124, %122
  %127 = call i32 @errcode(i32 noundef 50856066)
  %128 = load i32, ptr %8, align 4
  %129 = call i32 (ptr, ...) @errmsg(ptr noundef @.str.6, ptr noundef @.str.11, i32 noundef %128)
  call void @errfinish(ptr noundef @.str.3, i32 noundef 1165, ptr noundef @__func__.regexp_instr)
  br label %130

130:                                              ; preds = %126, %124, %122
  unreachable

131:                                              ; No predecessors!
  br label %132

132:                                              ; preds = %131
  br label %133

133:                                              ; preds = %132, %117, %108
  br label %134

134:                                              ; preds = %133, %102
  %135 = load ptr, ptr %3, align 8
  %136 = getelementptr inbounds nuw %struct.FunctionCallInfoBaseData, ptr %135, i32 0, i32 5
  %137 = load i16, ptr %136, align 2
  %138 = sext i16 %137 to i32
  %139 = icmp sgt i32 %138, 6
  br i1 %139, label %140, label %163

140:                                              ; preds = %134
  %141 = load ptr, ptr %3, align 8
  %142 = getelementptr inbounds nuw %struct.FunctionCallInfoBaseData, ptr %141, i32 0, i32 6
  %143 = getelementptr inbounds [0 x %struct.NullableDatum], ptr %142, i64 0, i64 6
  %144 = getelementptr inbounds nuw %struct.NullableDatum, ptr %143, i32 0, i32 0
  %145 = load i64, ptr %144, align 8
  %146 = call i32 @DatumGetInt32(i64 noundef %145)
  store i32 %146, ptr %10, align 4
  %147 = load i32, ptr %10, align 4
  %148 = icmp slt i32 %147, 0
  br i1 %148, label %149, label %162

149:                                              ; preds = %140
  br label %150

150:                                              ; preds = %149
  br i1 true, label %151, label %153

151:                                              ; preds = %150
  %152 = call zeroext i1 @errstart_cold(i32 noundef 21, ptr noundef null) #10
  br i1 %152, label %155, label %159

153:                                              ; preds = %150
  %154 = call zeroext i1 @errstart(i32 noundef 21, ptr noundef null)
  br i1 %154, label %155, label %159

155:                                              ; preds = %153, %151
  %156 = call i32 @errcode(i32 noundef 50856066)
  %157 = load i32, ptr %10, align 4
  %158 = call i32 (ptr, ...) @errmsg(ptr noundef @.str.6, ptr noundef @.str.12, i32 noundef %157)
  call void @errfinish(ptr noundef @.str.3, i32 noundef 1174, ptr noundef @__func__.regexp_instr)
  br label %159

159:                                              ; preds = %155, %153, %151
  unreachable

160:                                              ; No predecessors!
  br label %161

161:                                              ; preds = %160
  br label %162

162:                                              ; preds = %161, %140
  br label %163

163:                                              ; preds = %162, %134
  %164 = load ptr, ptr %9, align 8
  call void @parse_re_flags(ptr noundef %12, ptr noundef %164)
  %165 = getelementptr inbounds nuw %struct.pg_re_flags, ptr %12, i32 0, i32 1
  %166 = load i8, ptr %165, align 4, !range !6, !noundef !7
  %167 = trunc i8 %166 to i1
  br i1 %167, label %168, label %180

168:                                              ; preds = %163
  br label %169

169:                                              ; preds = %168
  br i1 true, label %170, label %172

170:                                              ; preds = %169
  %171 = call zeroext i1 @errstart_cold(i32 noundef 21, ptr noundef null) #10
  br i1 %171, label %174, label %177

172:                                              ; preds = %169
  %173 = call zeroext i1 @errstart(i32 noundef 21, ptr noundef null)
  br i1 %173, label %174, label %177

174:                                              ; preds = %172, %170
  %175 = call i32 @errcode(i32 noundef 50856066)
  %176 = call i32 (ptr, ...) @errmsg(ptr noundef @.str.9, ptr noundef @.str.13)
  call void @errfinish(ptr noundef @.str.3, i32 noundef 1185, ptr noundef @__func__.regexp_instr)
  br label %177

177:                                              ; preds = %174, %172, %170
  unreachable

178:                                              ; No predecessors!
  br label %179

179:                                              ; preds = %178
  br label %180

180:                                              ; preds = %179, %163
  %181 = getelementptr inbounds nuw %struct.pg_re_flags, ptr %12, i32 0, i32 1
  store i8 1, ptr %181, align 4
  %182 = load ptr, ptr %4, align 8
  %183 = load ptr, ptr %5, align 8
  %184 = load i32, ptr %6, align 4
  %185 = sub i32 %184, 1
  %186 = load ptr, ptr %3, align 8
  %187 = getelementptr inbounds nuw %struct.FunctionCallInfoBaseData, ptr %186, i32 0, i32 3
  %188 = load i32, ptr %187, align 8
  %189 = load i32, ptr %10, align 4
  %190 = icmp sgt i32 %189, 0
  %191 = call ptr @setup_regexp_matches(ptr noundef %182, ptr noundef %183, ptr noundef %12, i32 noundef %185, i32 noundef %188, i1 noundef zeroext %190, i1 noundef zeroext false, i1 noundef zeroext false)
  store ptr %191, ptr %13, align 8
  %192 = load i32, ptr %7, align 4
  %193 = load ptr, ptr %13, align 8
  %194 = getelementptr inbounds nuw %struct.regexp_matches_ctx, ptr %193, i32 0, i32 1
  %195 = load i32, ptr %194, align 8
  %196 = icmp sgt i32 %192, %195
  br i1 %196, label %197, label %199

197:                                              ; preds = %180
  %198 = call i64 @Int32GetDatum(i32 noundef 0)
  store i64 %198, ptr %2, align 8
  store i32 1, ptr %14, align 4
  br label %250

199:                                              ; preds = %180
  %200 = load i32, ptr %10, align 4
  %201 = load ptr, ptr %13, align 8
  %202 = getelementptr inbounds nuw %struct.regexp_matches_ctx, ptr %201, i32 0, i32 2
  %203 = load i32, ptr %202, align 4
  %204 = icmp sgt i32 %200, %203
  br i1 %204, label %205, label %207

205:                                              ; preds = %199
  %206 = call i64 @Int32GetDatum(i32 noundef 0)
  store i64 %206, ptr %2, align 8
  store i32 1, ptr %14, align 4
  br label %250

207:                                              ; preds = %199
  %208 = load i32, ptr %7, align 4
  %209 = sub i32 %208, 1
  %210 = load ptr, ptr %13, align 8
  %211 = getelementptr inbounds nuw %struct.regexp_matches_ctx, ptr %210, i32 0, i32 2
  %212 = load i32, ptr %211, align 4
  %213 = mul i32 %209, %212
  store i32 %213, ptr %11, align 4
  %214 = load i32, ptr %10, align 4
  %215 = icmp sgt i32 %214, 0
  br i1 %215, label %216, label %221

216:                                              ; preds = %207
  %217 = load i32, ptr %10, align 4
  %218 = sub i32 %217, 1
  %219 = load i32, ptr %11, align 4
  %220 = add i32 %219, %218
  store i32 %220, ptr %11, align 4
  br label %221

221:                                              ; preds = %216, %207
  %222 = load i32, ptr %11, align 4
  %223 = mul i32 %222, 2
  store i32 %223, ptr %11, align 4
  %224 = load i32, ptr %8, align 4
  %225 = icmp eq i32 %224, 1
  br i1 %225, label %226, label %229

226:                                              ; preds = %221
  %227 = load i32, ptr %11, align 4
  %228 = add i32 %227, 1
  store i32 %228, ptr %11, align 4
  br label %229

229:                                              ; preds = %226, %221
  %230 = load ptr, ptr %13, align 8
  %231 = getelementptr inbounds nuw %struct.regexp_matches_ctx, ptr %230, i32 0, i32 3
  %232 = load ptr, ptr %231, align 8
  %233 = load i32, ptr %11, align 4
  %234 = sext i32 %233 to i64
  %235 = getelementptr inbounds i32, ptr %232, i64 %234
  %236 = load i32, ptr %235, align 4
  %237 = icmp sge i32 %236, 0
  br i1 %237, label %238, label %248

238:                                              ; preds = %229
  %239 = load ptr, ptr %13, align 8
  %240 = getelementptr inbounds nuw %struct.regexp_matches_ctx, ptr %239, i32 0, i32 3
  %241 = load ptr, ptr %240, align 8
  %242 = load i32, ptr %11, align 4
  %243 = sext i32 %242 to i64
  %244 = getelementptr inbounds i32, ptr %241, i64 %243
  %245 = load i32, ptr %244, align 4
  %246 = add i32 %245, 1
  %247 = call i64 @Int32GetDatum(i32 noundef %246)
  store i64 %247, ptr %2, align 8
  store i32 1, ptr %14, align 4
  br label %250

248:                                              ; preds = %229
  %249 = call i64 @Int32GetDatum(i32 noundef 0)
  store i64 %249, ptr %2, align 8
  store i32 1, ptr %14, align 4
  br label %250

250:                                              ; preds = %248, %238, %205, %197
  call void @llvm.lifetime.end.p0(i64 8, ptr %13) #8
  call void @llvm.lifetime.end.p0(i64 8, ptr %12) #8
  call void @llvm.lifetime.end.p0(i64 4, ptr %11) #8
  call void @llvm.lifetime.end.p0(i64 4, ptr %10) #8
  call void @llvm.lifetime.end.p0(i64 8, ptr %9) #8
  call void @llvm.lifetime.end.p0(i64 4, ptr %8) #8
  call void @llvm.lifetime.end.p0(i64 4, ptr %7) #8
  call void @llvm.lifetime.end.p0(i64 4, ptr %6) #8
  call void @llvm.lifetime.end.p0(i64 8, ptr %5) #8
  call void @llvm.lifetime.end.p0(i64 8, ptr %4) #8
  %251 = load i64, ptr %2, align 8
  ret i64 %251
}