; Function Attrs: nounwind uwtable
define dso_local range(i64 -2147483648, 2147483648) i64 @regexp_instr(ptr noundef readonly captures(none) %0) local_unnamed_addr #0 {
  %2 = alloca %struct.pg_re_flags, align 4
  %3 = getelementptr inbounds nuw i8, ptr %0, i64 32
  %4 = load i64, ptr %3, align 8
  %5 = inttoptr i64 %4 to ptr
  %6 = tail call ptr @pg_detoast_datum_packed(ptr noundef %5) #9
  %7 = getelementptr inbounds nuw i8, ptr %0, i64 48
  %8 = load i64, ptr %7, align 8
  %9 = inttoptr i64 %8 to ptr
  %10 = tail call ptr @pg_detoast_datum_packed(ptr noundef %9) #9
  %11 = getelementptr inbounds nuw i8, ptr %0, i64 30
  %12 = load i16, ptr %11, align 2
  %13 = icmp sgt i16 %12, 5
  br i1 %13, label %14, label %19

14:                                               ; preds = %1
  %15 = getelementptr inbounds nuw i8, ptr %0, i64 112
  %16 = load i64, ptr %15, align 8
  %17 = inttoptr i64 %16 to ptr
  %18 = tail call ptr @pg_detoast_datum_packed(ptr noundef %17) #9
  %.pr = load i16, ptr %11, align 2
  br label %19

19:                                               ; preds = %1, %14
  %20 = phi i16 [ %12, %1 ], [ %.pr, %14 ]
  %21 = phi ptr [ null, %1 ], [ %18, %14 ]
  call void @llvm.lifetime.start.p0(i64 8, ptr nonnull %2) #9
  %22 = icmp sgt i16 %20, 2
  br i1 %22, label %23, label %.thread67

23:                                               ; preds = %19
  %24 = getelementptr inbounds nuw i8, ptr %0, i64 64
  %25 = load i64, ptr %24, align 8
  %26 = trunc i64 %25 to i32
  %27 = icmp slt i32 %26, 1
  br i1 %27, label %28, label %32

28:                                               ; preds = %23
  %29 = tail call zeroext i1 @errstart_cold(i32 noundef 21, ptr noundef null) #10
  tail call void @llvm.assume(i1 %29)
  %30 = tail call i32 @errcode(i32 noundef 50856066) #9
  %31 = tail call i32 (ptr, ...) @errmsg(ptr noundef nonnull @.str.6, ptr noundef nonnull @.str.7, i32 noundef %26) #9
  tail call void @errfinish(ptr noundef nonnull @.str.3, i32 noundef 1147, ptr noundef nonnull @__func__.regexp_instr) #9
  unreachable

32:                                               ; preds = %23
  %.not74 = icmp eq i16 %20, 3
  br i1 %.not74, label %.thread67, label %33

33:                                               ; preds = %32
  %34 = getelementptr inbounds nuw i8, ptr %0, i64 80
  %35 = load i64, ptr %34, align 8
  %36 = trunc i64 %35 to i32
  %37 = icmp slt i32 %36, 1
  br i1 %37, label %38, label %42

38:                                               ; preds = %33
  %39 = tail call zeroext i1 @errstart_cold(i32 noundef 21, ptr noundef null) #10
  tail call void @llvm.assume(i1 %39)
  %40 = tail call i32 @errcode(i32 noundef 50856066) #9
  %41 = tail call i32 (ptr, ...) @errmsg(ptr noundef nonnull @.str.6, ptr noundef nonnull @.str.8, i32 noundef %36) #9
  tail call void @errfinish(ptr noundef nonnull @.str.3, i32 noundef 1156, ptr noundef nonnull @__func__.regexp_instr) #9
  unreachable

42:                                               ; preds = %33
  %43 = icmp samesign ugt i16 %20, 4
  br i1 %43, label %44, label %.thread67

44:                                               ; preds = %42
  %45 = getelementptr inbounds nuw i8, ptr %0, i64 96
  %46 = load i64, ptr %45, align 8
  %47 = trunc i64 %46 to i32
  %or.cond = icmp ugt i32 %47, 1
  br i1 %or.cond, label %48, label %52

48:                                               ; preds = %44
  %49 = tail call zeroext i1 @errstart_cold(i32 noundef 21, ptr noundef null) #10
  tail call void @llvm.assume(i1 %49)
  %50 = tail call i32 @errcode(i32 noundef 50856066) #9
  %51 = tail call i32 (ptr, ...) @errmsg(ptr noundef nonnull @.str.6, ptr noundef nonnull @.str.11, i32 noundef %47) #9
  tail call void @errfinish(ptr noundef nonnull @.str.3, i32 noundef 1165, ptr noundef nonnull @__func__.regexp_instr) #9
  unreachable

52:                                               ; preds = %44
  %53 = icmp samesign ugt i16 %20, 6
  br i1 %53, label %54, label %.thread67

54:                                               ; preds = %52
  %55 = getelementptr inbounds nuw i8, ptr %0, i64 128
  %56 = load i64, ptr %55, align 8
  %57 = trunc i64 %56 to i32
  %58 = icmp slt i32 %57, 0
  br i1 %58, label %59, label %.thread67

59:                                               ; preds = %54
  %60 = tail call zeroext i1 @errstart_cold(i32 noundef 21, ptr noundef null) #10
  tail call void @llvm.assume(i1 %60)
  %61 = tail call i32 @errcode(i32 noundef 50856066) #9
  %62 = tail call i32 (ptr, ...) @errmsg(ptr noundef nonnull @.str.6, ptr noundef nonnull @.str.12, i32 noundef %57) #9
  tail call void @errfinish(ptr noundef nonnull @.str.3, i32 noundef 1174, ptr noundef nonnull @__func__.regexp_instr) #9
  unreachable

.thread67:                                        ; preds = %19, %32, %42, %54, %52
  %.04773 = phi i32 [ %47, %54 ], [ %47, %52 ], [ 0, %42 ], [ 0, %32 ], [ 0, %19 ]
  %.046606472 = phi i32 [ %26, %54 ], [ %26, %52 ], [ %26, %42 ], [ %26, %32 ], [ 1, %19 ]
  %.0486571 = phi i32 [ %36, %54 ], [ %36, %52 ], [ %36, %42 ], [ 1, %32 ], [ 1, %19 ]
  %.045 = phi i32 [ %57, %54 ], [ 0, %52 ], [ 0, %42 ], [ 0, %32 ], [ 0, %19 ]
  call fastcc void @parse_re_flags(ptr noundef %2, ptr noundef %21)
  %63 = getelementptr inbounds nuw i8, ptr %2, i64 4
  %64 = load i8, ptr %63, align 4, !range !7, !noundef !8
  %65 = trunc nuw i8 %64 to i1
  br i1 %65, label %66, label %70

66:                                               ; preds = %.thread67
  %67 = tail call zeroext i1 @errstart_cold(i32 noundef 21, ptr noundef null) #10
  tail call void @llvm.assume(i1 %67)
  %68 = tail call i32 @errcode(i32 noundef 50856066) #9
  %69 = tail call i32 (ptr, ...) @errmsg(ptr noundef nonnull @.str.9, ptr noundef nonnull @.str.13) #9
  tail call void @errfinish(ptr noundef nonnull @.str.3, i32 noundef 1185, ptr noundef nonnull @__func__.regexp_instr) #9
  unreachable

70:                                               ; preds = %.thread67
  %71 = add nsw i32 %.046606472, -1
  %72 = getelementptr inbounds nuw i8, ptr %0, i64 24
  %73 = load i32, ptr %72, align 8
  %74 = icmp ne i32 %.045, 0
  %.val = load i32, ptr %2, align 4
  %75 = tail call fastcc ptr @setup_regexp_matches(ptr noundef %6, ptr noundef %10, i32 %.val, i8 1, i32 noundef %71, i32 noundef %73, i1 noundef zeroext %74, i1 noundef zeroext false, i1 noundef zeroext false)
  %76 = getelementptr inbounds nuw i8, ptr %75, i64 8
  %77 = load i32, ptr %76, align 8
  %78 = icmp sgt i32 %.0486571, %77
  br i1 %78, label %97, label %79

79:                                               ; preds = %70
  %80 = getelementptr inbounds nuw i8, ptr %75, i64 12
  %81 = load i32, ptr %80, align 4
  %82 = icmp sgt i32 %.045, %81
  br i1 %82, label %97, label %83

83:                                               ; preds = %79
  %84 = add nuw i32 %.0486571, 2147483647
  %85 = mul i32 %81, %84
  %86 = tail call i32 @llvm.usub.sat.i32(i32 %.045, i32 1)
  %.044 = add i32 %85, %86
  %87 = shl i32 %.044, 1
  %.1 = or disjoint i32 %87, %.04773
  %88 = getelementptr inbounds nuw i8, ptr %75, i64 16
  %89 = load ptr, ptr %88, align 8
  %90 = sext i32 %.1 to i64
  %91 = getelementptr inbounds i32, ptr %89, i64 %90
  %92 = load i32, ptr %91, align 4
  %93 = icmp sgt i32 %92, -1
  br i1 %93, label %94, label %97

94:                                               ; preds = %83
  %95 = add nuw i32 %92, 1
  %96 = sext i32 %95 to i64
  br label %97

97:                                               ; preds = %83, %79, %70, %94
  %.0 = phi i64 [ %96, %94 ], [ 0, %70 ], [ 0, %79 ], [ 0, %83 ]
  call void @llvm.lifetime.end.p0(i64 8, ptr nonnull %2) #9
  ret i64 %.0
}